target datalayout = "e-m:e-p270:32:32-p271:32:32-p272:64:64-i64:64-i128:128-f80:128-n8:16:32:64-S128"
target triple = "x86_64-pc-linux-gnu"

; Function Attrs: nounwind uwtable
define hidden i32 @lexbor_conv_data_to_uint(ptr noundef %0, i64 noundef %1) #0 {
  %3 = alloca i32, align 4
  %4 = alloca ptr, align 8
  %5 = alloca i64, align 8
  %6 = alloca ptr, align 8
  %7 = alloca ptr, align 8
  %8 = alloca i32, align 4
  %9 = alloca i32, align 4
  %10 = alloca i32, align 4
  store ptr %0, ptr %4, align 8, !tbaa !14
  store i64 %1, ptr %5, align 8, !tbaa !11
  call void @llvm.lifetime.start.p0(i64 8, ptr %6) #3
  %11 = load ptr, ptr %4, align 8, !tbaa !14
  %12 = load ptr, ptr %11, align 8, !tbaa !8
  store ptr %12, ptr %6, align 8, !tbaa !8
  call void @llvm.lifetime.start.p0(i64 8, ptr %7) #3
  %13 = load ptr, ptr %6, align 8, !tbaa !8
  %14 = load i64, ptr %5, align 8, !tbaa !11
  %15 = getelementptr inbounds nuw i8, ptr %13, i64 %14
  store ptr %15, ptr %7, align 8, !tbaa !8
  call void @llvm.lifetime.start.p0(i64 4, ptr %8) #3
  store i32 0, ptr %8, align 4, !tbaa !16
  call void @llvm.lifetime.start.p0(i64 4, ptr %9) #3
  store i32 0, ptr %9, align 4, !tbaa !16
  br label %16

16:                                               ; preds = %49, %2
  %17 = load ptr, ptr %6, align 8, !tbaa !8
  %18 = load ptr, ptr %7, align 8, !tbaa !8
  %19 = icmp ult ptr %17, %18
  br i1 %19, label %20, label %52

20:                                               ; preds = %16
  %21 = load ptr, ptr %6, align 8, !tbaa !8
  %22 = load i8, ptr %21, align 1, !tbaa !13
  %23 = zext i8 %22 to i32
  %24 = icmp slt i32 %23, 48
  br i1 %24, label %30, label %25

25:                                               ; preds = %20
  %26 = load ptr, ptr %6, align 8, !tbaa !8
  %27 = load i8, ptr %26, align 1, !tbaa !13
  %28 = zext i8 %27 to i32
  %29 = icmp sgt i32 %28, 57
  br i1 %29, label %30, label %31

30:                                               ; preds = %25, %20
  br label %53

31:                                               ; preds = %25
  %32 = load ptr, ptr %6, align 8, !tbaa !8
  %33 = load i8, ptr %32, align 1, !tbaa !13
  %34 = zext i8 %33 to i32
  %35 = sub nsw i32 %34, 48
  %36 = load i32, ptr %9, align 4, !tbaa !16
  %37 = mul i32 %36, 10
  %38 = add i32 %35, %37
  store i32 %38, ptr %9, align 4, !tbaa !16
  %39 = load i32, ptr %8, align 4, !tbaa !16
  %40 = load i32, ptr %9, align 4, !tbaa !16
  %41 = icmp ugt i32 %39, %40
  br i1 %41, label %42, label %47

42:                                               ; preds = %31
  %43 = load ptr, ptr %6, align 8, !tbaa !8
  %44 = getelementptr inbounds i8, ptr %43, i64 -1
  %45 = load ptr, ptr %4, align 8, !tbaa !14
  store ptr %44, ptr %45, align 8, !tbaa !8
  %46 = load i32, ptr %8, align 4, !tbaa !16
  store i32 %46, ptr %3, align 4
  store i32 1, ptr %10, align 4
  br label %57

47:                                               ; preds = %31
  %48 = load i32, ptr %9, align 4, !tbaa !16
  store i32 %48, ptr %8, align 4, !tbaa !16
  br label %49

49:                                               ; preds = %47
  %50 = load ptr, ptr %6, align 8, !tbaa !8
  %51 = getelementptr inbounds nuw i8, ptr %50, i32 1
  store ptr %51, ptr %6, align 8, !tbaa !8
  br label %16

52:                                               ; preds = %16
  br label %53

53:                                               ; preds = %52, %30
  %54 = load ptr, ptr %6, align 8, !tbaa !8
  %55 = load ptr, ptr %4, align 8, !tbaa !14
  store ptr %54, ptr %55, align 8, !tbaa !8
  %56 = load i32, ptr %9, align 4, !tbaa !16
  store i32 %56, ptr %3, align 4
  store i32 1, ptr %10, align 4
  br label %57

57:                                               ; preds = %53, %42
  call void @llvm.lifetime.end.p0(i64 4, ptr %9) #3
  call void @llvm.lifetime.end.p0(i64 4, ptr %8) #3
  call void @llvm.lifetime.end.p0(i64 8, ptr %7) #3
  call void @llvm.lifetime.end.p0(i64 8, ptr %6) #3
  %58 = load i32, ptr %3, align 4
  ret i32 %58
}